target datalayout = "e-m:e-p270:32:32-p271:32:32-p272:64:64-i64:64-i128:128-f80:128-n8:16:32:64-S128"
target triple = "x86_64-pc-linux-gnu"

%struct._cwd_state = type { ptr, i64 }
%struct._virtual_cwd_globals = type { %struct._cwd_state, i64, i64, i64, [1024 x ptr] }

@cwd_globals = hidden global %struct._virtual_cwd_globals zeroinitializer, align 8

; Function Attrs: nounwind uwtable
define dso_local i32 @virtual_access(ptr noundef %0, i32 noundef %1) #0 {
  %3 = alloca i32, align 4
  %4 = alloca ptr, align 8
  %5 = alloca i32, align 4
  %6 = alloca %struct._cwd_state, align 8
  %7 = alloca i32, align 4
  %8 = alloca i32, align 4
  store ptr %0, ptr %4, align 8, !tbaa !12
  store i32 %1, ptr %5, align 4, !tbaa !27
  call void @llvm.lifetime.start.p0(i64 16, ptr %6) #16
  call void @llvm.lifetime.start.p0(i64 4, ptr %7) #16
  %9 = load i64, ptr getelementptr inbounds nuw (%struct._cwd_state, ptr @cwd_globals, i32 0, i32 1), align 8, !tbaa !16
  %10 = getelementptr inbounds nuw %struct._cwd_state, ptr %6, i32 0, i32 1
  store i64 %9, ptr %10, align 8, !tbaa !13
  %11 = load i64, ptr getelementptr inbounds nuw (%struct._cwd_state, ptr @cwd_globals, i32 0, i32 1), align 8, !tbaa !16
  %12 = add i64 %11, 1
  %13 = call i1 @llvm.is.constant.i64(i64 %12)
  br i1 %13, label %14, label %268

14:                                               ; preds = %2
  %15 = load i64, ptr getelementptr inbounds nuw (%struct._cwd_state, ptr @cwd_globals, i32 0, i32 1), align 8, !tbaa !16
  %16 = add i64 %15, 1
  %17 = icmp ule i64 %16, 8
  br i1 %17, label %18, label %20

18:                                               ; preds = %14
  %19 = call noalias ptr @_emalloc_8()
  br label %266

20:                                               ; preds = %14
  %21 = load i64, ptr getelementptr inbounds nuw (%struct._cwd_state, ptr @cwd_globals, i32 0, i32 1), align 8, !tbaa !16
  %22 = add i64 %21, 1
  %23 = icmp ule i64 %22, 16
  br i1 %23, label %24, label %26

24:                                               ; preds = %20
  %25 = call noalias ptr @_emalloc_16()
  br label %264

26:                                               ; preds = %20
  %27 = load i64, ptr getelementptr inbounds nuw (%struct._cwd_state, ptr @cwd_globals, i32 0, i32 1), align 8, !tbaa !16
  %28 = add i64 %27, 1
  %29 = icmp ule i64 %28, 24
  br i1 %29, label %30, label %32

30:                                               ; preds = %26
  %31 = call noalias ptr @_emalloc_24()
  br label %262

32:                                               ; preds = %26
  %33 = load i64, ptr getelementptr inbounds nuw (%struct._cwd_state, ptr @cwd_globals, i32 0, i32 1), align 8, !tbaa !16
  %34 = add i64 %33, 1
  %35 = icmp ule i64 %34, 32
  br i1 %35, label %36, label %38

36:                                               ; preds = %32
  %37 = call noalias ptr @_emalloc_32()
  br label %260

38:                                               ; preds = %32
  %39 = load i64, ptr getelementptr inbounds nuw (%struct._cwd_state, ptr @cwd_globals, i32 0, i32 1), align 8, !tbaa !16
  %40 = add i64 %39, 1
  %41 = icmp ule i64 %40, 40
  br i1 %41, label %42, label %44

42:                                               ; preds = %38
  %43 = call noalias ptr @_emalloc_40()
  br label %258

44:                                               ; preds = %38
  %45 = load i64, ptr getelementptr inbounds nuw (%struct._cwd_state, ptr @cwd_globals, i32 0, i32 1), align 8, !tbaa !16
  %46 = add i64 %45, 1
  %47 = icmp ule i64 %46, 48
  br i1 %47, label %48, label %50

48:                                               ; preds = %44
  %49 = call noalias ptr @_emalloc_48()
  br label %256

50:                                               ; preds = %44
  %51 = load i64, ptr getelementptr inbounds nuw (%struct._cwd_state, ptr @cwd_globals, i32 0, i32 1), align 8, !tbaa !16
  %52 = add i64 %51, 1
  %53 = icmp ule i64 %52, 56
  br i1 %53, label %54, label %56

54:                                               ; preds = %50
  %55 = call noalias ptr @_emalloc_56()
  br label %254

56:                                               ; preds = %50
  %57 = load i64, ptr getelementptr inbounds nuw (%struct._cwd_state, ptr @cwd_globals, i32 0, i32 1), align 8, !tbaa !16
  %58 = add i64 %57, 1
  %59 = icmp ule i64 %58, 64
  br i1 %59, label %60, label %62

60:                                               ; preds = %56
  %61 = call noalias ptr @_emalloc_64()
  br label %252

62:                                               ; preds = %56
  %63 = load i64, ptr getelementptr inbounds nuw (%struct._cwd_state, ptr @cwd_globals, i32 0, i32 1), align 8, !tbaa !16
  %64 = add i64 %63, 1
  %65 = icmp ule i64 %64, 80
  br i1 %65, label %66, label %68

66:                                               ; preds = %62
  %67 = call noalias ptr @_emalloc_80()
  br label %250

68:                                               ; preds = %62
  %69 = load i64, ptr getelementptr inbounds nuw (%struct._cwd_state, ptr @cwd_globals, i32 0, i32 1), align 8, !tbaa !16
  %70 = add i64 %69, 1
  %71 = icmp ule i64 %70, 96
  br i1 %71, label %72, label %74

72:                                               ; preds = %68
  %73 = call noalias ptr @_emalloc_96()
  br label %248

74:                                               ; preds = %68
  %75 = load i64, ptr getelementptr inbounds nuw (%struct._cwd_state, ptr @cwd_globals, i32 0, i32 1), align 8, !tbaa !16
  %76 = add i64 %75, 1
  %77 = icmp ule i64 %76, 112
  br i1 %77, label %78, label %80

78:                                               ; preds = %74
  %79 = call noalias ptr @_emalloc_112()
  br label %246

80:                                               ; preds = %74
  %81 = load i64, ptr getelementptr inbounds nuw (%struct._cwd_state, ptr @cwd_globals, i32 0, i32 1), align 8, !tbaa !16
  %82 = add i64 %81, 1
  %83 = icmp ule i64 %82, 128
  br i1 %83, label %84, label %86

84:                                               ; preds = %80
  %85 = call noalias ptr @_emalloc_128()
  br label %244

86:                                               ; preds = %80
  %87 = load i64, ptr getelementptr inbounds nuw (%struct._cwd_state, ptr @cwd_globals, i32 0, i32 1), align 8, !tbaa !16
  %88 = add i64 %87, 1
  %89 = icmp ule i64 %88, 160
  br i1 %89, label %90, label %92

90:                                               ; preds = %86
  %91 = call noalias ptr @_emalloc_160()
  br label %242

92:                                               ; preds = %86
  %93 = load i64, ptr getelementptr inbounds nuw (%struct._cwd_state, ptr @cwd_globals, i32 0, i32 1), align 8, !tbaa !16
  %94 = add i64 %93, 1
  %95 = icmp ule i64 %94, 192
  br i1 %95, label %96, label %98

96:                                               ; preds = %92
  %97 = call noalias ptr @_emalloc_192()
  br label %240

98:                                               ; preds = %92
  %99 = load i64, ptr getelementptr inbounds nuw (%struct._cwd_state, ptr @cwd_globals, i32 0, i32 1), align 8, !tbaa !16
  %100 = add i64 %99, 1
  %101 = icmp ule i64 %100, 224
  br i1 %101, label %102, label %104

102:                                              ; preds = %98
  %103 = call noalias ptr @_emalloc_224()
  br label %238

104:                                              ; preds = %98
  %105 = load i64, ptr getelementptr inbounds nuw (%struct._cwd_state, ptr @cwd_globals, i32 0, i32 1), align 8, !tbaa !16
  %106 = add i64 %105, 1
  %107 = icmp ule i64 %106, 256
  br i1 %107, label %108, label %110

108:                                              ; preds = %104
  %109 = call noalias ptr @_emalloc_256()
  br label %236

110:                                              ; preds = %104
  %111 = load i64, ptr getelementptr inbounds nuw (%struct._cwd_state, ptr @cwd_globals, i32 0, i32 1), align 8, !tbaa !16
  %112 = add i64 %111, 1
  %113 = icmp ule i64 %112, 320
  br i1 %113, label %114, label %116

114:                                              ; preds = %110
  %115 = call noalias ptr @_emalloc_320()
  br label %234

116:                                              ; preds = %110
  %117 = load i64, ptr getelementptr inbounds nuw (%struct._cwd_state, ptr @cwd_globals, i32 0, i32 1), align 8, !tbaa !16
  %118 = add i64 %117, 1
  %119 = icmp ule i64 %118, 384
  br i1 %119, label %120, label %122

120:                                              ; preds = %116
  %121 = call noalias ptr @_emalloc_384()
  br label %232

122:                                              ; preds = %116
  %123 = load i64, ptr getelementptr inbounds nuw (%struct._cwd_state, ptr @cwd_globals, i32 0, i32 1), align 8, !tbaa !16
  %124 = add i64 %123, 1
  %125 = icmp ule i64 %124, 448
  br i1 %125, label %126, label %128

126:                                              ; preds = %122
  %127 = call noalias ptr @_emalloc_448()
  br label %230

128:                                              ; preds = %122
  %129 = load i64, ptr getelementptr inbounds nuw (%struct._cwd_state, ptr @cwd_globals, i32 0, i32 1), align 8, !tbaa !16
  %130 = add i64 %129, 1
  %131 = icmp ule i64 %130, 512
  br i1 %131, label %132, label %134

132:                                              ; preds = %128
  %133 = call noalias ptr @_emalloc_512()
  br label %228

134:                                              ; preds = %128
  %135 = load i64, ptr getelementptr inbounds nuw (%struct._cwd_state, ptr @cwd_globals, i32 0, i32 1), align 8, !tbaa !16
  %136 = add i64 %135, 1
  %137 = icmp ule i64 %136, 640
  br i1 %137, label %138, label %140

138:                                              ; preds = %134
  %139 = call noalias ptr @_emalloc_640()
  br label %226

140:                                              ; preds = %134
  %141 = load i64, ptr getelementptr inbounds nuw (%struct._cwd_state, ptr @cwd_globals, i32 0, i32 1), align 8, !tbaa !16
  %142 = add i64 %141, 1
  %143 = icmp ule i64 %142, 768
  br i1 %143, label %144, label %146

144:                                              ; preds = %140
  %145 = call noalias ptr @_emalloc_768()
  br label %224

146:                                              ; preds = %140
  %147 = load i64, ptr getelementptr inbounds nuw (%struct._cwd_state, ptr @cwd_globals, i32 0, i32 1), align 8, !tbaa !16
  %148 = add i64 %147, 1
  %149 = icmp ule i64 %148, 896
  br i1 %149, label %150, label %152

150:                                              ; preds = %146
  %151 = call noalias ptr @_emalloc_896()
  br label %222

152:                                              ; preds = %146
  %153 = load i64, ptr getelementptr inbounds nuw (%struct._cwd_state, ptr @cwd_globals, i32 0, i32 1), align 8, !tbaa !16
  %154 = add i64 %153, 1
  %155 = icmp ule i64 %154, 1024
  br i1 %155, label %156, label %158

156:                                              ; preds = %152
  %157 = call noalias ptr @_emalloc_1024()
  br label %220

158:                                              ; preds = %152
  %159 = load i64, ptr getelementptr inbounds nuw (%struct._cwd_state, ptr @cwd_globals, i32 0, i32 1), align 8, !tbaa !16
  %160 = add i64 %159, 1
  %161 = icmp ule i64 %160, 1280
  br i1 %161, label %162, label %164

162:                                              ; preds = %158
  %163 = call noalias ptr @_emalloc_1280()
  br label %218

164:                                              ; preds = %158
  %165 = load i64, ptr getelementptr inbounds nuw (%struct._cwd_state, ptr @cwd_globals, i32 0, i32 1), align 8, !tbaa !16
  %166 = add i64 %165, 1
  %167 = icmp ule i64 %166, 1536
  br i1 %167, label %168, label %170

168:                                              ; preds = %164
  %169 = call noalias ptr @_emalloc_1536()
  br label %216

170:                                              ; preds = %164
  %171 = load i64, ptr getelementptr inbounds nuw (%struct._cwd_state, ptr @cwd_globals, i32 0, i32 1), align 8, !tbaa !16
  %172 = add i64 %171, 1
  %173 = icmp ule i64 %172, 1792
  br i1 %173, label %174, label %176

174:                                              ; preds = %170
  %175 = call noalias ptr @_emalloc_1792()
  br label %214

176:                                              ; preds = %170
  %177 = load i64, ptr getelementptr inbounds nuw (%struct._cwd_state, ptr @cwd_globals, i32 0, i32 1), align 8, !tbaa !16
  %178 = add i64 %177, 1
  %179 = icmp ule i64 %178, 2048
  br i1 %179, label %180, label %182

180:                                              ; preds = %176
  %181 = call noalias ptr @_emalloc_2048()
  br label %212

182:                                              ; preds = %176
  %183 = load i64, ptr getelementptr inbounds nuw (%struct._cwd_state, ptr @cwd_globals, i32 0, i32 1), align 8, !tbaa !16
  %184 = add i64 %183, 1
  %185 = icmp ule i64 %184, 2560
  br i1 %185, label %186, label %188

186:                                              ; preds = %182
  %187 = call noalias ptr @_emalloc_2560()
  br label %210

188:                                              ; preds = %182
  %189 = load i64, ptr getelementptr inbounds nuw (%struct._cwd_state, ptr @cwd_globals, i32 0, i32 1), align 8, !tbaa !16
  %190 = add i64 %189, 1
  %191 = icmp ule i64 %190, 3072
  br i1 %191, label %192, label %194

192:                                              ; preds = %188
  %193 = call noalias ptr @_emalloc_3072()
  br label %208

194:                                              ; preds = %188
  %195 = load i64, ptr getelementptr inbounds nuw (%struct._cwd_state, ptr @cwd_globals, i32 0, i32 1), align 8, !tbaa !16
  %196 = add i64 %195, 1
  %197 = icmp ule i64 %196, 2093056
  br i1 %197, label %198, label %202

198:                                              ; preds = %194
  %199 = load i64, ptr getelementptr inbounds nuw (%struct._cwd_state, ptr @cwd_globals, i32 0, i32 1), align 8, !tbaa !16
  %200 = add i64 %199, 1
  %201 = call noalias ptr @_emalloc_large(i64 noundef %200) #18
  br label %206

202:                                              ; preds = %194
  %203 = load i64, ptr getelementptr inbounds nuw (%struct._cwd_state, ptr @cwd_globals, i32 0, i32 1), align 8, !tbaa !16
  %204 = add i64 %203, 1
  %205 = call noalias ptr @_emalloc_huge(i64 noundef %204) #18
  br label %206

206:                                              ; preds = %202, %198
  %207 = phi ptr [ %201, %198 ], [ %205, %202 ]
  br label %208

208:                                              ; preds = %206, %192
  %209 = phi ptr [ %193, %192 ], [ %207, %206 ]
  br label %210

210:                                              ; preds = %208, %186
  %211 = phi ptr [ %187, %186 ], [ %209, %208 ]
  br label %212

212:                                              ; preds = %210, %180
  %213 = phi ptr [ %181, %180 ], [ %211, %210 ]
  br label %214

214:                                              ; preds = %212, %174
  %215 = phi ptr [ %175, %174 ], [ %213, %212 ]
  br label %216

216:                                              ; preds = %214, %168
  %217 = phi ptr [ %169, %168 ], [ %215, %214 ]
  br label %218

218:                                              ; preds = %216, %162
  %219 = phi ptr [ %163, %162 ], [ %217, %216 ]
  br label %220

220:                                              ; preds = %218, %156
  %221 = phi ptr [ %157, %156 ], [ %219, %218 ]
  br label %222

222:                                              ; preds = %220, %150
  %223 = phi ptr [ %151, %150 ], [ %221, %220 ]
  br label %224

224:                                              ; preds = %222, %144
  %225 = phi ptr [ %145, %144 ], [ %223, %222 ]
  br label %226

226:                                              ; preds = %224, %138
  %227 = phi ptr [ %139, %138 ], [ %225, %224 ]
  br label %228

228:                                              ; preds = %226, %132
  %229 = phi ptr [ %133, %132 ], [ %227, %226 ]
  br label %230

230:                                              ; preds = %228, %126
  %231 = phi ptr [ %127, %126 ], [ %229, %228 ]
  br label %232

232:                                              ; preds = %230, %120
  %233 = phi ptr [ %121, %120 ], [ %231, %230 ]
  br label %234

234:                                              ; preds = %232, %114
  %235 = phi ptr [ %115, %114 ], [ %233, %232 ]
  br label %236

236:                                              ; preds = %234, %108
  %237 = phi ptr [ %109, %108 ], [ %235, %234 ]
  br label %238

238:                                              ; preds = %236, %102
  %239 = phi ptr [ %103, %102 ], [ %237, %236 ]
  br label %240

240:                                              ; preds = %238, %96
  %241 = phi ptr [ %97, %96 ], [ %239, %238 ]
  br label %242

242:                                              ; preds = %240, %90
  %243 = phi ptr [ %91, %90 ], [ %241, %240 ]
  br label %244

244:                                              ; preds = %242, %84
  %245 = phi ptr [ %85, %84 ], [ %243, %242 ]
  br label %246

246:                                              ; preds = %244, %78
  %247 = phi ptr [ %79, %78 ], [ %245, %244 ]
  br label %248

248:                                              ; preds = %246, %72
  %249 = phi ptr [ %73, %72 ], [ %247, %246 ]
  br label %250

250:                                              ; preds = %248, %66
  %251 = phi ptr [ %67, %66 ], [ %249, %248 ]
  br label %252

252:                                              ; preds = %250, %60
  %253 = phi ptr [ %61, %60 ], [ %251, %250 ]
  br label %254

254:                                              ; preds = %252, %54
  %255 = phi ptr [ %55, %54 ], [ %253, %252 ]
  br label %256

256:                                              ; preds = %254, %48
  %257 = phi ptr [ %49, %48 ], [ %255, %254 ]
  br label %258

258:                                              ; preds = %256, %42
  %259 = phi ptr [ %43, %42 ], [ %257, %256 ]
  br label %260

260:                                              ; preds = %258, %36
  %261 = phi ptr [ %37, %36 ], [ %259, %258 ]
  br label %262

262:                                              ; preds = %260, %30
  %263 = phi ptr [ %31, %30 ], [ %261, %260 ]
  br label %264

264:                                              ; preds = %262, %24
  %265 = phi ptr [ %25, %24 ], [ %263, %262 ]
  br label %266

266:                                              ; preds = %264, %18
  %267 = phi ptr [ %19, %18 ], [ %265, %264 ]
  br label %272

268:                                              ; preds = %2
  %269 = load i64, ptr getelementptr inbounds nuw (%struct._cwd_state, ptr @cwd_globals, i32 0, i32 1), align 8, !tbaa !16
  %270 = add i64 %269, 1
  %271 = call noalias ptr @_emalloc(i64 noundef %270) #18
  br label %272

272:                                              ; preds = %268, %266
  %273 = phi ptr [ %267, %266 ], [ %271, %268 ]
  %274 = getelementptr inbounds nuw %struct._cwd_state, ptr %6, i32 0, i32 0
  store ptr %273, ptr %274, align 8, !tbaa !7
  %275 = getelementptr inbounds nuw %struct._cwd_state, ptr %6, i32 0, i32 0
  %276 = load ptr, ptr %275, align 8, !tbaa !7
  %277 = load ptr, ptr @cwd_globals, align 8, !tbaa !18
  %278 = load i64, ptr getelementptr inbounds nuw (%struct._cwd_state, ptr @cwd_globals, i32 0, i32 1), align 8, !tbaa !16
  %279 = add i64 %278, 1
  call void @llvm.memcpy.p0.p0.i64(ptr align 1 %276, ptr align 1 %277, i64 %279, i1 false)
  %280 = load ptr, ptr %4, align 8, !tbaa !12
  %281 = call i32 @virtual_file_ex(ptr noundef %6, ptr noundef %280, ptr noundef null, i32 noundef 2)
  %282 = icmp ne i32 %281, 0
  br i1 %282, label %283, label %287

283:                                              ; preds = %272
  %284 = getelementptr inbounds nuw %struct._cwd_state, ptr %6, i32 0, i32 0
  %285 = load ptr, ptr %284, align 8, !tbaa !7
  call void @_efree(ptr noundef %285)
  %286 = getelementptr inbounds nuw %struct._cwd_state, ptr %6, i32 0, i32 1
  store i64 0, ptr %286, align 8, !tbaa !13
  store i32 -1, ptr %3, align 4
  store i32 1, ptr %8, align 4
  br label %296

287:                                              ; preds = %272
  %288 = getelementptr inbounds nuw %struct._cwd_state, ptr %6, i32 0, i32 0
  %289 = load ptr, ptr %288, align 8, !tbaa !7
  %290 = load i32, ptr %5, align 4, !tbaa !27
  %291 = call i32 @access(ptr noundef %289, i32 noundef %290) #16
  store i32 %291, ptr %7, align 4, !tbaa !27
  %292 = getelementptr inbounds nuw %struct._cwd_state, ptr %6, i32 0, i32 0
  %293 = load ptr, ptr %292, align 8, !tbaa !7
  call void @_efree(ptr noundef %293)
  %294 = getelementptr inbounds nuw %struct._cwd_state, ptr %6, i32 0, i32 1
  store i64 0, ptr %294, align 8, !tbaa !13
  %295 = load i32, ptr %7, align 4, !tbaa !27
  store i32 %295, ptr %3, align 4
  store i32 1, ptr %8, align 4
  br label %296

296:                                              ; preds = %287, %283
  call void @llvm.lifetime.end.p0(i64 4, ptr %7) #16
  call void @llvm.lifetime.end.p0(i64 16, ptr %6) #16
  %297 = load i32, ptr %3, align 4
  ret i32 %297
}